; Function Attrs: mustprogress nounwind uwtable
define internal void @_ZN4LuauL8fnVisitRIRKNS_8TypePath8PathHashEmKNS1_8PropertyEEEvRT_RT0_PNSt11conditionalIXsr3stdE10is_const_vIT1_EEKvvE4typeE(ptr nonnull readnone align 1 captures(none) %0, ptr noundef nonnull writeonly align 8 captures(none) dereferenceable(8) %1, ptr noundef readonly captures(none) %2) #9 personality ptr @__gxx_personality_v0 {
  %4 = load ptr, ptr %2, align 8, !tbaa !22
  %5 = getelementptr inbounds nuw i8, ptr %2, i64 8
  %6 = load i64, ptr %5, align 8, !tbaa !25
  %7 = invoke noundef i64 @_ZSt11_Hash_bytesPKvmm(ptr noundef %4, i64 noundef %6, i64 noundef 3339675911)
          to label %_ZNK4Luau8TypePath8PathHashclERKNS0_8PropertyE.exit unwind label %8

8:                                                ; preds = %3
  %9 = landingpad { ptr, i32 }
          catch ptr null
  %10 = extractvalue { ptr, i32 } %9, 0
  tail call void @__clang_call_terminate(ptr %10) #27
  unreachable

_ZNK4Luau8TypePath8PathHashclERKNS0_8PropertyE.exit: ; preds = %3
  %11 = getelementptr inbounds nuw i8, ptr %2, i64 32
  %12 = load i8, ptr %11, align 8, !tbaa !27, !range !30, !noundef !42
  %13 = zext nneg i8 %12 to i64
  %14 = xor i64 %7, %13
  store i64 %14, ptr %1, align 8, !tbaa !47
  ret void
}